target datalayout = "e-m:e-p270:32:32-p271:32:32-p272:64:64-i64:64-i128:128-f80:128-n8:16:32:64-S128"
target triple = "x86_64-pc-linux-gnu"

; Function Attrs: inlinehint nounwind uwtable
define internal i32 @git_is_dir_sep(i32 noundef %0) #3 {
  %2 = alloca i32, align 4
  store i32 %0, ptr %2, align 4, !tbaa !16
  %3 = load i32, ptr %2, align 4, !tbaa !16
  %4 = icmp eq i32 %3, 47
  %5 = zext i1 %4 to i32
  ret i32 %5
}

; Function Attrs: nounwind uwtable
define dso_local void @strip_dir_trailing_slashes(ptr noundef %0) #0 {
  %2 = alloca ptr, align 8
  %3 = alloca ptr, align 8
  store ptr %0, ptr %2, align 8, !tbaa !13
  call void @llvm.lifetime.start.p0(i64 8, ptr %3) #12
  %4 = load ptr, ptr %2, align 8, !tbaa !13
  %5 = load ptr, ptr %2, align 8, !tbaa !13
  %6 = call i64 @strlen(ptr noundef %5) #13
  %7 = getelementptr inbounds nuw i8, ptr %4, i64 %6
  store ptr %7, ptr %3, align 8, !tbaa !13
  br label %8

8:                                                ; preds = %22, %1
  %9 = load ptr, ptr %2, align 8, !tbaa !13
  %10 = load ptr, ptr %3, align 8, !tbaa !13
  %11 = getelementptr inbounds i8, ptr %10, i64 -1
  %12 = icmp ult ptr %9, %11
  br i1 %12, label %13, label %20

13:                                               ; preds = %8
  %14 = load ptr, ptr %3, align 8, !tbaa !13
  %15 = getelementptr inbounds i8, ptr %14, i64 -1
  %16 = load i8, ptr %15, align 1, !tbaa !15
  %17 = sext i8 %16 to i32
  %18 = call i32 @git_is_dir_sep(i32 noundef %17)
  %19 = icmp ne i32 %18, 0
  br label %20

20:                                               ; preds = %13, %8
  %21 = phi i1 [ false, %8 ], [ %19, %13 ]
  br i1 %21, label %22, label %25

22:                                               ; preds = %20
  %23 = load ptr, ptr %3, align 8, !tbaa !13
  %24 = getelementptr inbounds i8, ptr %23, i32 -1
  store ptr %24, ptr %3, align 8, !tbaa !13
  br label %8, !llvm.loop !207

25:                                               ; preds = %20
  %26 = load ptr, ptr %3, align 8, !tbaa !13
  store i8 0, ptr %26, align 1, !tbaa !15
  call void @llvm.lifetime.end.p0(i64 8, ptr %3) #12
  ret void
}