; Function Attrs: nofree nounwind memory(argmem: readwrite) uwtable
define dso_local void @strip_dir_trailing_slashes(ptr noundef %0) local_unnamed_addr #17 {
  %2 = tail call i64 @strlen(ptr noundef nonnull dereferenceable(1) %0) #28
  %3 = getelementptr inbounds nuw i8, ptr %0, i64 %2
  br label %4

4:                                                ; preds = %7, %1
  %.0 = phi ptr [ %3, %1 ], [ %5, %7 ]
  %5 = getelementptr inbounds i8, ptr %.0, i64 -1
  %6 = icmp ult ptr %0, %5
  br i1 %6, label %7, label %.critedge

7:                                                ; preds = %4
  %8 = load i8, ptr %5, align 1, !tbaa !4
  %.not = icmp eq i8 %8, 47
  br i1 %.not, label %4, label %.critedge, !llvm.loop !190

.critedge:                                        ; preds = %4, %7
  store i8 0, ptr %.0, align 1, !tbaa !4
  ret void
}